; Function Attrs: mustprogress nounwind uwtable
define internal fastcc void @_ZN6hermes6ESTree24RecursiveVisitorDispatchINS_12_GLOBAL__N_119DependencyExtractorELb1EE13visitChildrenERS3_PNS0_20DeclareComponentNodeE(ptr noundef nonnull align 8 dereferenceable(145) %v, ptr noundef readonly %node) unnamed_addr #0 align 2 {
entry:
  %_id = getelementptr inbounds i8, ptr %node, i64 48
  %0 = load ptr, ptr %_id, align 8
  tail call fastcc void @_ZN6hermes6ESTree24RecursiveVisitorDispatchINS_12_GLOBAL__N_119DependencyExtractorELb1EE5visitERS3_PNS0_4NodeES7_(ptr noundef nonnull align 8 dereferenceable(145) %v, ptr noundef %0)
  %_params = getelementptr inbounds i8, ptr %node, i64 56
  %Next.i.i.i.i = getelementptr inbounds i8, ptr %node, i64 64
  %__begin4.i.sroa.0.016 = load ptr, ptr %Next.i.i.i.i, align 8
  %cmp.i.not17 = icmp eq ptr %__begin4.i.sroa.0.016, %_params
  br i1 %cmp.i.not17, label %_ZN6hermes6ESTree24RecursiveVisitorDispatchINS_12_GLOBAL__N_119DependencyExtractorELb1EE5visitERS3_RN4llvh12simple_ilistINS0_4NodeEJEEEPS8_.exit, label %for.body.i

for.body.i:                                       ; preds = %entry, %for.body.i
  %__begin4.i.sroa.0.018 = phi ptr [ %__begin4.i.sroa.0.0, %for.body.i ], [ %__begin4.i.sroa.0.016, %entry ]
  tail call fastcc void @_ZN6hermes6ESTree24RecursiveVisitorDispatchINS_12_GLOBAL__N_119DependencyExtractorELb1EE5visitERS3_PNS0_4NodeES7_(ptr noundef nonnull align 8 dereferenceable(145) %v, ptr noundef nonnull %__begin4.i.sroa.0.018)
  %Next.i.i.i = getelementptr inbounds i8, ptr %__begin4.i.sroa.0.018, i64 8
  %__begin4.i.sroa.0.0 = load ptr, ptr %Next.i.i.i, align 8
  %cmp.i.not = icmp eq ptr %__begin4.i.sroa.0.0, %_params
  br i1 %cmp.i.not, label %_ZN6hermes6ESTree24RecursiveVisitorDispatchINS_12_GLOBAL__N_119DependencyExtractorELb1EE5visitERS3_RN4llvh12simple_ilistINS0_4NodeEJEEEPS8_.exit, label %for.body.i

_ZN6hermes6ESTree24RecursiveVisitorDispatchINS_12_GLOBAL__N_119DependencyExtractorELb1EE5visitERS3_RN4llvh12simple_ilistINS0_4NodeEJEEEPS8_.exit: ; preds = %for.body.i, %entry
  %_rest = getelementptr inbounds i8, ptr %node, i64 72
  %1 = load ptr, ptr %_rest, align 8
  tail call fastcc void @_ZN6hermes6ESTree24RecursiveVisitorDispatchINS_12_GLOBAL__N_119DependencyExtractorELb1EE5visitERS3_PNS0_4NodeES7_(ptr noundef nonnull align 8 dereferenceable(145) %v, ptr noundef %1)
  %_typeParameters = getelementptr inbounds i8, ptr %node, i64 80
  %2 = load ptr, ptr %_typeParameters, align 8
  tail call fastcc void @_ZN6hermes6ESTree24RecursiveVisitorDispatchINS_12_GLOBAL__N_119DependencyExtractorELb1EE5visitERS3_PNS0_4NodeES7_(ptr noundef nonnull align 8 dereferenceable(145) %v, ptr noundef %2)
  %_rendersType = getelementptr inbounds i8, ptr %node, i64 88
  %3 = load ptr, ptr %_rendersType, align 8
  tail call fastcc void @_ZN6hermes6ESTree24RecursiveVisitorDispatchINS_12_GLOBAL__N_119DependencyExtractorELb1EE5visitERS3_PNS0_4NodeES7_(ptr noundef nonnull align 8 dereferenceable(145) %v, ptr noundef %3)
  ret void
}